target datalayout = "e-m:e-p270:32:32-p271:32:32-p272:64:64-i64:64-i128:128-f80:128-n8:16:32:64-S128"
target triple = "x86_64-pc-linux-gnu"

%struct.pg_compress_specification = type { i32, i32, i32, i32, i8, ptr }
%struct.CompressFileHandle = type { ptr, ptr, ptr, ptr, ptr, ptr, ptr, ptr, ptr, %struct.pg_compress_specification, ptr }
%struct.gzFile_s = type { i32, ptr, i64 }

@.str.9 = private unnamed_addr constant [35 x i8] c"could not read from input file: %m\00", align 1
@.str.10 = private unnamed_addr constant [44 x i8] c"could not read from input file: end of file\00", align 1

; Function Attrs: nounwind uwtable
define internal i32 @Gzip_getc(ptr noundef %0) #0 {
  %2 = alloca ptr, align 8
  %3 = alloca ptr, align 8
  %4 = alloca i32, align 4
  store ptr %0, ptr %2, align 8
  call void @llvm.lifetime.start.p0(i64 8, ptr %3) #7
  %5 = load ptr, ptr %2, align 8
  %6 = getelementptr inbounds nuw %struct.CompressFileHandle, ptr %5, i32 0, i32 10
  %7 = load ptr, ptr %6, align 8
  store ptr %7, ptr %3, align 8
  call void @llvm.lifetime.start.p0(i64 4, ptr %4) #7
  %8 = call ptr @__errno_location() #9
  store i32 0, ptr %8, align 4
  %9 = load ptr, ptr %3, align 8
  %10 = getelementptr inbounds nuw %struct.gzFile_s, ptr %9, i32 0, i32 0
  %11 = load i32, ptr %10, align 8
  %12 = icmp ne i32 %11, 0
  br i1 %12, label %13, label %28

13:                                               ; preds = %1
  %14 = load ptr, ptr %3, align 8
  %15 = getelementptr inbounds nuw %struct.gzFile_s, ptr %14, i32 0, i32 0
  %16 = load i32, ptr %15, align 8
  %17 = add i32 %16, -1
  store i32 %17, ptr %15, align 8
  %18 = load ptr, ptr %3, align 8
  %19 = getelementptr inbounds nuw %struct.gzFile_s, ptr %18, i32 0, i32 2
  %20 = load i64, ptr %19, align 8
  %21 = add i64 %20, 1
  store i64 %21, ptr %19, align 8
  %22 = load ptr, ptr %3, align 8
  %23 = getelementptr inbounds nuw %struct.gzFile_s, ptr %22, i32 0, i32 1
  %24 = load ptr, ptr %23, align 8
  %25 = getelementptr inbounds nuw i8, ptr %24, i32 1
  store ptr %25, ptr %23, align 8
  %26 = load i8, ptr %24, align 1
  %27 = zext i8 %26 to i32
  br label %31

28:                                               ; preds = %1
  %29 = load ptr, ptr %3, align 8
  %30 = call i32 @gzgetc(ptr noundef %29)
  br label %31

31:                                               ; preds = %28, %13
  %32 = phi i32 [ %27, %13 ], [ %30, %28 ]
  store i32 %32, ptr %4, align 4
  %33 = load i32, ptr %4, align 4
  %34 = icmp eq i32 %33, -1
  br i1 %34, label %35, label %48

35:                                               ; preds = %31
  %36 = load ptr, ptr %3, align 8
  %37 = call i32 @gzeof(ptr noundef %36)
  %38 = icmp ne i32 %37, 0
  br i1 %38, label %43, label %39

39:                                               ; preds = %35
  br label %40

40:                                               ; preds = %39
  call void (i32, i32, ptr, ...) @pg_log_generic(i32 noundef 4, i32 noundef 0, ptr noundef @.str.9)
  call void @exit_nicely(i32 noundef 1) #8
  unreachable

41:                                               ; No predecessors!
  br label %42

42:                                               ; preds = %41
  br label %47

43:                                               ; preds = %35
  br label %44

44:                                               ; preds = %43
  call void (i32, i32, ptr, ...) @pg_log_generic(i32 noundef 4, i32 noundef 0, ptr noundef @.str.10)
  call void @exit_nicely(i32 noundef 1) #8
  unreachable

45:                                               ; No predecessors!
  br label %46

46:                                               ; preds = %45
  br label %47

47:                                               ; preds = %46, %42
  br label %48

48:                                               ; preds = %47, %31
  %49 = load i32, ptr %4, align 4
  call void @llvm.lifetime.end.p0(i64 4, ptr %4) #7
  call void @llvm.lifetime.end.p0(i64 8, ptr %3) #7
  ret i32 %49
}