; Function Attrs: nounwind uwtable
define internal range(i32 0, -1) i32 @Gzip_getc(ptr noundef readonly captures(none) %0) #0 {
  %2 = getelementptr inbounds nuw i8, ptr %0, i64 104
  %3 = load ptr, ptr %2, align 8
  %4 = tail call ptr @__errno_location() #13
  store i32 0, ptr %4, align 4
  %5 = load i32, ptr %3, align 8
  %.not = icmp eq i32 %5, 0
  br i1 %.not, label %15, label %.thread

.thread:                                          ; preds = %1
  %6 = add i32 %5, -1
  store i32 %6, ptr %3, align 8
  %7 = getelementptr inbounds nuw i8, ptr %3, i64 16
  %8 = load i64, ptr %7, align 8
  %9 = add i64 %8, 1
  store i64 %9, ptr %7, align 8
  %10 = getelementptr inbounds nuw i8, ptr %3, i64 8
  %11 = load ptr, ptr %10, align 8
  %12 = getelementptr inbounds nuw i8, ptr %11, i64 1
  store ptr %12, ptr %10, align 8
  %13 = load i8, ptr %11, align 1
  %14 = zext i8 %13 to i32
  br label %22

15:                                               ; preds = %1
  %16 = tail call i32 @gzgetc(ptr noundef nonnull %3) #11
  %17 = icmp eq i32 %16, -1
  br i1 %17, label %18, label %22

18:                                               ; preds = %15
  %19 = tail call i32 @gzeof(ptr noundef nonnull %3) #11
  %.not9 = icmp eq i32 %19, 0
  br i1 %.not9, label %20, label %21

20:                                               ; preds = %18
  tail call void (i32, i32, ptr, ...) @pg_log_generic(i32 noundef 4, i32 noundef 0, ptr noundef nonnull @.str.9) #11
  tail call void @exit_nicely(i32 noundef 1) #12
  unreachable

21:                                               ; preds = %18
  tail call void (i32, i32, ptr, ...) @pg_log_generic(i32 noundef 4, i32 noundef 0, ptr noundef nonnull @.str.10) #11
  tail call void @exit_nicely(i32 noundef 1) #12
  unreachable

22:                                               ; preds = %.thread, %15
  %23 = phi i32 [ %14, %.thread ], [ %16, %15 ]
  ret i32 %23
}